; Function Attrs: mustprogress nounwind uwtable
define void @_ZN6icu_7511FormattableD2Ev(ptr noundef nonnull align 8 dereferenceable(112) %this) unnamed_addr #0 align 2 personality ptr @__gxx_personality_v0 {
entry:
  store ptr getelementptr inbounds ({ [5 x ptr] }, ptr @_ZTVN6icu_7511FormattableE, i64 0, i32 0, i64 2), ptr %this, align 8
  tail call void @_ZN6icu_7511Formattable7disposeEv(ptr noundef nonnull align 8 dereferenceable(112) %this)
  %fBogus = getelementptr inbounds i8, ptr %this, i64 48
  tail call void @_ZN6icu_7513UnicodeStringD1Ev(ptr noundef nonnull align 8 dereferenceable(64) %fBogus) #16
  tail call void @_ZN6icu_757UObjectD2Ev(ptr noundef nonnull align 8 dereferenceable(8) %this) #16
  ret void
}